target datalayout = "e-m:e-p270:32:32-p271:32:32-p272:64:64-i64:64-i128:128-f80:128-n8:16:32:64-S128"
target triple = "x86_64-unknown-linux-gnu"

%"class.std::__cxx11::basic_string" = type { %"struct.std::__cxx11::basic_string<char>::_Alloc_hider", i64, %union.anon }
%"struct.std::__cxx11::basic_string<char>::_Alloc_hider" = type { ptr }
%union.anon = type { i64, [8 x i8] }
%"class.__gnu_cxx::__normal_iterator" = type { ptr }
%"struct.std::_Vector_base" = type { %"struct.std::_Vector_base<std::unique_ptr<node::inspector::ServerSocket, node::FunctionDeleter<node::inspector::ServerSocket, &node::inspector::InspectorSocketServer::CloseServerSocket>>, std::allocator<std::unique_ptr<node::inspector::ServerSocket, node::FunctionDeleter<node::inspector::ServerSocket, &node::inspector::InspectorSocketServer::CloseServerSocket>>>>::_Vector_impl" }
%"struct.std::_Vector_base<std::unique_ptr<node::inspector::ServerSocket, node::FunctionDeleter<node::inspector::ServerSocket, &node::inspector::InspectorSocketServer::CloseServerSocket>>, std::allocator<std::unique_ptr<node::inspector::ServerSocket, node::FunctionDeleter<node::inspector::ServerSocket, &node::inspector::InspectorSocketServer::CloseServerSocket>>>>::_Vector_impl" = type { %"struct.std::_Vector_base<std::unique_ptr<node::inspector::ServerSocket, node::FunctionDeleter<node::inspector::ServerSocket, &node::inspector::InspectorSocketServer::CloseServerSocket>>, std::allocator<std::unique_ptr<node::inspector::ServerSocket, node::FunctionDeleter<node::inspector::ServerSocket, &node::inspector::InspectorSocketServer::CloseServerSocket>>>>::_Vector_impl_data" }
%"struct.std::_Vector_base<std::unique_ptr<node::inspector::ServerSocket, node::FunctionDeleter<node::inspector::ServerSocket, &node::inspector::InspectorSocketServer::CloseServerSocket>>, std::allocator<std::unique_ptr<node::inspector::ServerSocket, node::FunctionDeleter<node::inspector::ServerSocket, &node::inspector::InspectorSocketServer::CloseServerSocket>>>>::_Vector_impl_data" = type { ptr, ptr, ptr }
%"class.node::inspector::ServerSocket" = type <{ %struct.uv_tcp_s, ptr, i32, [4 x i8] }>
%struct.uv_tcp_s = type { ptr, ptr, i32, ptr, %struct.uv__queue, %union.anon.11, ptr, i32, i64, ptr, ptr, ptr, ptr, %struct.uv__io_s, %struct.uv__queue, %struct.uv__queue, ptr, i32, i32, ptr }
%union.anon.11 = type { [4 x ptr] }
%struct.uv__io_s = type { ptr, %struct.uv__queue, %struct.uv__queue, i32, i32, i32 }
%struct.uv__queue = type { ptr, ptr }
%"class.std::unique_ptr" = type { %"struct.std::__uniq_ptr_data" }
%"struct.std::__uniq_ptr_data" = type { %"class.std::__uniq_ptr_impl" }
%"class.std::__uniq_ptr_impl" = type { %"class.std::tuple" }
%"class.std::tuple" = type { %"struct.std::_Tuple_impl" }
%"struct.std::_Tuple_impl" = type { %"struct.std::_Head_base.4" }
%"struct.std::_Head_base.4" = type { ptr }
%"class.node::inspector::InspectorSocketServer" = type <{ ptr, %"class.std::unique_ptr.12", %"class.std::__cxx11::basic_string", i32, %"struct.node::InspectPublishUid", [2 x i8], %"class.std::vector", %"class.std::map", i32, [4 x i8], ptr, i32, [4 x i8] }>
%"class.std::unique_ptr.12" = type { %"struct.std::__uniq_ptr_data.13" }
%"struct.std::__uniq_ptr_data.13" = type { %"class.std::__uniq_ptr_impl.14" }
%"class.std::__uniq_ptr_impl.14" = type { %"class.std::tuple.15" }
%"class.std::tuple.15" = type { %"struct.std::_Tuple_impl.16" }
%"struct.std::_Tuple_impl.16" = type { %"struct.std::_Head_base.19" }
%"struct.std::_Head_base.19" = type { ptr }
%"struct.node::InspectPublishUid" = type { i8, i8 }
%"class.std::vector" = type { %"struct.std::_Vector_base" }
%"class.std::map" = type { %"class.std::_Rb_tree" }
%"class.std::_Rb_tree" = type { %"struct.std::_Rb_tree<int, std::pair<const int, std::pair<std::__cxx11::basic_string<char>, std::unique_ptr<node::inspector::SocketSession>>>, std::_Select1st<std::pair<const int, std::pair<std::__cxx11::basic_string<char>, std::unique_ptr<node::inspector::SocketSession>>>>, std::less<int>>::_Rb_tree_impl" }
%"struct.std::_Rb_tree<int, std::pair<const int, std::pair<std::__cxx11::basic_string<char>, std::unique_ptr<node::inspector::SocketSession>>>, std::_Select1st<std::pair<const int, std::pair<std::__cxx11::basic_string<char>, std::unique_ptr<node::inspector::SocketSession>>>>, std::less<int>>::_Rb_tree_impl" = type { %"struct.std::_Rb_tree_key_compare", %"struct.std::_Rb_tree_header" }
%"struct.std::_Rb_tree_key_compare" = type { %"struct.std::less" }
%"struct.std::less" = type { i8 }
%"struct.std::_Rb_tree_header" = type { %"struct.std::_Rb_tree_node_base", i64 }
%"struct.std::_Rb_tree_node_base" = type { i32, ptr, ptr, ptr }

; Function Attrs: mustprogress nounwind uwtable
define linkonce_odr dso_local noundef nonnull align 8 dereferenceable(8) ptr @_ZNSt10_Head_baseILm0EPN4node9inspector12ServerSocketELb0EE7_M_headERKS4_(ptr noundef nonnull align 8 dereferenceable(8) %__b) #0 comdat align 2 {
entry:
  %__b.addr = alloca ptr, align 8
  store ptr %__b, ptr %__b.addr, align 8
  %0 = load ptr, ptr %__b.addr, align 8
  %_M_head_impl = getelementptr inbounds %"struct.std::_Head_base.4", ptr %0, i32 0, i32 0
  ret ptr %_M_head_impl
}

; Function Attrs: mustprogress nounwind uwtable
define linkonce_odr dso_local noundef nonnull align 8 dereferenceable(8) ptr @_ZNSt11_Tuple_implILm0EJPN4node9inspector12ServerSocketENS0_15FunctionDeleterIS2_XadL_ZNS1_21InspectorSocketServer17CloseServerSocketES3_EEEEEE7_M_headERKS7_(ptr noundef nonnull align 8 dereferenceable(8) %__t) #0 comdat align 2 {
entry:
  %__t.addr = alloca ptr, align 8
  store ptr %__t, ptr %__t.addr, align 8
  %0 = load ptr, ptr %__t.addr, align 8
  %call = call noundef nonnull align 8 dereferenceable(8) ptr @_ZNSt10_Head_baseILm0EPN4node9inspector12ServerSocketELb0EE7_M_headERKS4_(ptr noundef nonnull align 8 dereferenceable(8) %0) #12
  ret ptr %call
}

; Function Attrs: mustprogress nounwind uwtable
define linkonce_odr dso_local noundef nonnull align 8 dereferenceable(8) ptr @_ZSt12__get_helperILm0EPN4node9inspector12ServerSocketEJNS0_15FunctionDeleterIS2_XadL_ZNS1_21InspectorSocketServer17CloseServerSocketES3_EEEEEERKT0_RKSt11_Tuple_implIXT_EJS7_DpT1_EE(ptr noundef nonnull align 8 dereferenceable(8) %__t) #0 comdat {
entry:
  %__t.addr = alloca ptr, align 8
  store ptr %__t, ptr %__t.addr, align 8
  %0 = load ptr, ptr %__t.addr, align 8
  %call = call noundef nonnull align 8 dereferenceable(8) ptr @_ZNSt11_Tuple_implILm0EJPN4node9inspector12ServerSocketENS0_15FunctionDeleterIS2_XadL_ZNS1_21InspectorSocketServer17CloseServerSocketES3_EEEEEE7_M_headERKS7_(ptr noundef nonnull align 8 dereferenceable(8) %0) #12
  ret ptr %call
}

; Function Attrs: mustprogress nounwind uwtable
define linkonce_odr dso_local noundef nonnull align 8 dereferenceable(8) ptr @_ZSt3getILm0EJPN4node9inspector12ServerSocketENS0_15FunctionDeleterIS2_XadL_ZNS1_21InspectorSocketServer17CloseServerSocketES3_EEEEEERKNSt13tuple_elementIXT_ESt5tupleIJDpT0_EEE4typeERKSB_(ptr noundef nonnull align 8 dereferenceable(8) %__t) #0 comdat {
entry:
  %__t.addr = alloca ptr, align 8
  store ptr %__t, ptr %__t.addr, align 8
  %0 = load ptr, ptr %__t.addr, align 8
  %call = call noundef nonnull align 8 dereferenceable(8) ptr @_ZSt12__get_helperILm0EPN4node9inspector12ServerSocketEJNS0_15FunctionDeleterIS2_XadL_ZNS1_21InspectorSocketServer17CloseServerSocketES3_EEEEEERKT0_RKSt11_Tuple_implIXT_EJS7_DpT1_EE(ptr noundef nonnull align 8 dereferenceable(8) %0) #12
  ret ptr %call
}

; Function Attrs: mustprogress nounwind uwtable
define linkonce_odr dso_local noundef ptr @_ZNKSt15__uniq_ptr_implIN4node9inspector12ServerSocketENS0_15FunctionDeleterIS2_XadL_ZNS1_21InspectorSocketServer17CloseServerSocketEPS2_EEEEE6_M_ptrEv(ptr noundef nonnull align 8 dereferenceable(8) %this) #0 comdat align 2 {
entry:
  %this.addr = alloca ptr, align 8
  store ptr %this, ptr %this.addr, align 8
  %this1 = load ptr, ptr %this.addr, align 8
  %_M_t = getelementptr inbounds %"class.std::__uniq_ptr_impl", ptr %this1, i32 0, i32 0
  %call = call noundef nonnull align 8 dereferenceable(8) ptr @_ZSt3getILm0EJPN4node9inspector12ServerSocketENS0_15FunctionDeleterIS2_XadL_ZNS1_21InspectorSocketServer17CloseServerSocketES3_EEEEEERKNSt13tuple_elementIXT_ESt5tupleIJDpT0_EEE4typeERKSB_(ptr noundef nonnull align 8 dereferenceable(8) %_M_t) #12
  %0 = load ptr, ptr %call, align 8
  ret ptr %0
}

; Function Attrs: mustprogress nounwind uwtable
define linkonce_odr dso_local noundef nonnull align 8 dereferenceable(8) ptr @_ZNK9__gnu_cxx17__normal_iteratorIPKSt10unique_ptrIN4node9inspector12ServerSocketENS2_15FunctionDeleterIS4_XadL_ZNS3_21InspectorSocketServer17CloseServerSocketEPS4_EEEEESt6vectorIS9_SaIS9_EEE4baseEv(ptr noundef nonnull align 8 dereferenceable(8) %this) #0 comdat align 2 {
entry:
  %this.addr = alloca ptr, align 8
  store ptr %this, ptr %this.addr, align 8
  %this1 = load ptr, ptr %this.addr, align 8
  %_M_current = getelementptr inbounds %"class.__gnu_cxx::__normal_iterator", ptr %this1, i32 0, i32 0
  ret ptr %_M_current
}

; Function Attrs: mustprogress nounwind uwtable
define linkonce_odr dso_local void @_ZN9__gnu_cxx17__normal_iteratorIPKSt10unique_ptrIN4node9inspector12ServerSocketENS2_15FunctionDeleterIS4_XadL_ZNS3_21InspectorSocketServer17CloseServerSocketEPS4_EEEEESt6vectorIS9_SaIS9_EEEC2ERKSB_(ptr noundef nonnull align 8 dereferenceable(8) %this, ptr noundef nonnull align 8 dereferenceable(8) %__i) unnamed_addr #0 comdat align 2 {
entry:
  %this.addr = alloca ptr, align 8
  %__i.addr = alloca ptr, align 8
  store ptr %this, ptr %this.addr, align 8
  store ptr %__i, ptr %__i.addr, align 8
  %this1 = load ptr, ptr %this.addr, align 8
  %_M_current = getelementptr inbounds %"class.__gnu_cxx::__normal_iterator", ptr %this1, i32 0, i32 0
  %0 = load ptr, ptr %__i.addr, align 8
  %1 = load ptr, ptr %0, align 8
  store ptr %1, ptr %_M_current, align 8
  ret void
}

; Function Attrs: mustprogress nounwind uwtable
define linkonce_odr dso_local noundef ptr @_ZNKSt10unique_ptrIN4node9inspector12ServerSocketENS0_15FunctionDeleterIS2_XadL_ZNS1_21InspectorSocketServer17CloseServerSocketEPS2_EEEEE3getEv(ptr noundef nonnull align 8 dereferenceable(8) %this) #0 comdat align 2 {
entry:
  %this.addr = alloca ptr, align 8
  store ptr %this, ptr %this.addr, align 8
  %this1 = load ptr, ptr %this.addr, align 8
  %_M_t = getelementptr inbounds %"class.std::unique_ptr", ptr %this1, i32 0, i32 0
  %call = call noundef ptr @_ZNKSt15__uniq_ptr_implIN4node9inspector12ServerSocketENS0_15FunctionDeleterIS2_XadL_ZNS1_21InspectorSocketServer17CloseServerSocketEPS2_EEEEE6_M_ptrEv(ptr noundef nonnull align 8 dereferenceable(8) %_M_t) #12
  ret ptr %call
}

; Function Attrs: mustprogress nounwind uwtable
define linkonce_odr dso_local noundef zeroext i1 @_ZN9__gnu_cxxeqIPKSt10unique_ptrIN4node9inspector12ServerSocketENS2_15FunctionDeleterIS4_XadL_ZNS3_21InspectorSocketServer17CloseServerSocketEPS4_EEEEESt6vectorIS9_SaIS9_EEEEbRKNS_17__normal_iteratorIT_T0_EESK_(ptr noundef nonnull align 8 dereferenceable(8) %__lhs, ptr noundef nonnull align 8 dereferenceable(8) %__rhs) #0 comdat {
entry:
  %__lhs.addr = alloca ptr, align 8
  %__rhs.addr = alloca ptr, align 8
  store ptr %__lhs, ptr %__lhs.addr, align 8
  store ptr %__rhs, ptr %__rhs.addr, align 8
  %0 = load ptr, ptr %__lhs.addr, align 8
  %call = call noundef nonnull align 8 dereferenceable(8) ptr @_ZNK9__gnu_cxx17__normal_iteratorIPKSt10unique_ptrIN4node9inspector12ServerSocketENS2_15FunctionDeleterIS4_XadL_ZNS3_21InspectorSocketServer17CloseServerSocketEPS4_EEEEESt6vectorIS9_SaIS9_EEE4baseEv(ptr noundef nonnull align 8 dereferenceable(8) %0) #12
  %1 = load ptr, ptr %call, align 8
  %2 = load ptr, ptr %__rhs.addr, align 8
  %call1 = call noundef nonnull align 8 dereferenceable(8) ptr @_ZNK9__gnu_cxx17__normal_iteratorIPKSt10unique_ptrIN4node9inspector12ServerSocketENS2_15FunctionDeleterIS4_XadL_ZNS3_21InspectorSocketServer17CloseServerSocketEPS4_EEEEESt6vectorIS9_SaIS9_EEE4baseEv(ptr noundef nonnull align 8 dereferenceable(8) %2) #12
  %3 = load ptr, ptr %call1, align 8
  %cmp = icmp eq ptr %1, %3
  ret i1 %cmp
}

; Function Attrs: mustprogress nounwind uwtable
define linkonce_odr dso_local ptr @_ZNKSt6vectorISt10unique_ptrIN4node9inspector12ServerSocketENS1_15FunctionDeleterIS3_XadL_ZNS2_21InspectorSocketServer17CloseServerSocketEPS3_EEEEESaIS8_EE3endEv(ptr noundef nonnull align 8 dereferenceable(24) %this) #0 comdat align 2 {
entry:
  %retval = alloca %"class.__gnu_cxx::__normal_iterator", align 8
  %this.addr = alloca ptr, align 8
  store ptr %this, ptr %this.addr, align 8
  %this1 = load ptr, ptr %this.addr, align 8
  %_M_impl = getelementptr inbounds %"struct.std::_Vector_base", ptr %this1, i32 0, i32 0
  %_M_finish = getelementptr inbounds %"struct.std::_Vector_base<std::unique_ptr<node::inspector::ServerSocket, node::FunctionDeleter<node::inspector::ServerSocket, &node::inspector::InspectorSocketServer::CloseServerSocket>>, std::allocator<std::unique_ptr<node::inspector::ServerSocket, node::FunctionDeleter<node::inspector::ServerSocket, &node::inspector::InspectorSocketServer::CloseServerSocket>>>>::_Vector_impl_data", ptr %_M_impl, i32 0, i32 1
  call void @_ZN9__gnu_cxx17__normal_iteratorIPKSt10unique_ptrIN4node9inspector12ServerSocketENS2_15FunctionDeleterIS4_XadL_ZNS3_21InspectorSocketServer17CloseServerSocketEPS4_EEEEESt6vectorIS9_SaIS9_EEEC2ERKSB_(ptr noundef nonnull align 8 dereferenceable(8) %retval, ptr noundef nonnull align 8 dereferenceable(8) %_M_finish) #12
  %coerce.dive = getelementptr inbounds %"class.__gnu_cxx::__normal_iterator", ptr %retval, i32 0, i32 0
  %0 = load ptr, ptr %coerce.dive, align 8
  ret ptr %0
}

; Function Attrs: mustprogress nounwind uwtable
define linkonce_odr dso_local ptr @_ZNKSt6vectorISt10unique_ptrIN4node9inspector12ServerSocketENS1_15FunctionDeleterIS3_XadL_ZNS2_21InspectorSocketServer17CloseServerSocketEPS3_EEEEESaIS8_EE5beginEv(ptr noundef nonnull align 8 dereferenceable(24) %this) #0 comdat align 2 {
entry:
  %retval = alloca %"class.__gnu_cxx::__normal_iterator", align 8
  %this.addr = alloca ptr, align 8
  store ptr %this, ptr %this.addr, align 8
  %this1 = load ptr, ptr %this.addr, align 8
  %_M_impl = getelementptr inbounds %"struct.std::_Vector_base", ptr %this1, i32 0, i32 0
  %_M_start = getelementptr inbounds %"struct.std::_Vector_base<std::unique_ptr<node::inspector::ServerSocket, node::FunctionDeleter<node::inspector::ServerSocket, &node::inspector::InspectorSocketServer::CloseServerSocket>>, std::allocator<std::unique_ptr<node::inspector::ServerSocket, node::FunctionDeleter<node::inspector::ServerSocket, &node::inspector::InspectorSocketServer::CloseServerSocket>>>>::_Vector_impl_data", ptr %_M_impl, i32 0, i32 0
  call void @_ZN9__gnu_cxx17__normal_iteratorIPKSt10unique_ptrIN4node9inspector12ServerSocketENS2_15FunctionDeleterIS4_XadL_ZNS3_21InspectorSocketServer17CloseServerSocketEPS4_EEEEESt6vectorIS9_SaIS9_EEEC2ERKSB_(ptr noundef nonnull align 8 dereferenceable(8) %retval, ptr noundef nonnull align 8 dereferenceable(8) %_M_start) #12
  %coerce.dive = getelementptr inbounds %"class.__gnu_cxx::__normal_iterator", ptr %retval, i32 0, i32 0
  %0 = load ptr, ptr %coerce.dive, align 8
  ret ptr %0
}

; Function Attrs: mustprogress nounwind uwtable
define linkonce_odr dso_local noundef i32 @_ZNK4node9inspector12ServerSocket4portEv(ptr noundef nonnull align 8 dereferenceable(260) %this) #0 comdat align 2 {
entry:
  %this.addr = alloca ptr, align 8
  store ptr %this, ptr %this.addr, align 8
  %this1 = load ptr, ptr %this.addr, align 8
  %port_ = getelementptr inbounds %"class.node::inspector::ServerSocket", ptr %this1, i32 0, i32 2
  %0 = load i32, ptr %port_, align 8
  ret i32 %0
}

; Function Attrs: mustprogress nounwind uwtable
define linkonce_odr dso_local noundef ptr @_ZNKSt10unique_ptrIN4node9inspector12ServerSocketENS0_15FunctionDeleterIS2_XadL_ZNS1_21InspectorSocketServer17CloseServerSocketEPS2_EEEEEptEv(ptr noundef nonnull align 8 dereferenceable(8) %this) #0 comdat align 2 {
entry:
  %this.addr = alloca ptr, align 8
  store ptr %this, ptr %this.addr, align 8
  %this1 = load ptr, ptr %this.addr, align 8
  %call = call noundef ptr @_ZNKSt10unique_ptrIN4node9inspector12ServerSocketENS0_15FunctionDeleterIS2_XadL_ZNS1_21InspectorSocketServer17CloseServerSocketEPS2_EEEEE3getEv(ptr noundef nonnull align 8 dereferenceable(8) %this1) #12
  ret ptr %call
}

; Function Attrs: mustprogress nounwind uwtable
define linkonce_odr dso_local noundef nonnull align 8 dereferenceable(8) ptr @_ZNKSt6vectorISt10unique_ptrIN4node9inspector12ServerSocketENS1_15FunctionDeleterIS3_XadL_ZNS2_21InspectorSocketServer17CloseServerSocketEPS3_EEEEESaIS8_EEixEm(ptr noundef nonnull align 8 dereferenceable(24) %this, i64 noundef %__n) #0 comdat align 2 {
entry:
  %this.addr = alloca ptr, align 8
  %__n.addr = alloca i64, align 8
  store ptr %this, ptr %this.addr, align 8
  store i64 %__n, ptr %__n.addr, align 8
  %this1 = load ptr, ptr %this.addr, align 8
  %_M_impl = getelementptr inbounds %"struct.std::_Vector_base", ptr %this1, i32 0, i32 0
  %_M_start = getelementptr inbounds %"struct.std::_Vector_base<std::unique_ptr<node::inspector::ServerSocket, node::FunctionDeleter<node::inspector::ServerSocket, &node::inspector::InspectorSocketServer::CloseServerSocket>>, std::allocator<std::unique_ptr<node::inspector::ServerSocket, node::FunctionDeleter<node::inspector::ServerSocket, &node::inspector::InspectorSocketServer::CloseServerSocket>>>>::_Vector_impl_data", ptr %_M_impl, i32 0, i32 0
  %0 = load ptr, ptr %_M_start, align 8
  %1 = load i64, ptr %__n.addr, align 8
  %add.ptr = getelementptr inbounds %"class.std::unique_ptr", ptr %0, i64 %1
  ret ptr %add.ptr
}

; Function Attrs: mustprogress nounwind uwtable
define linkonce_odr dso_local noundef zeroext i1 @_ZNKSt6vectorISt10unique_ptrIN4node9inspector12ServerSocketENS1_15FunctionDeleterIS3_XadL_ZNS2_21InspectorSocketServer17CloseServerSocketEPS3_EEEEESaIS8_EE5emptyEv(ptr noundef nonnull align 8 dereferenceable(24) %this) #0 comdat align 2 {
entry:
  %this.addr = alloca ptr, align 8
  %ref.tmp = alloca %"class.__gnu_cxx::__normal_iterator", align 8
  %ref.tmp2 = alloca %"class.__gnu_cxx::__normal_iterator", align 8
  store ptr %this, ptr %this.addr, align 8
  %this1 = load ptr, ptr %this.addr, align 8
  %call = call ptr @_ZNKSt6vectorISt10unique_ptrIN4node9inspector12ServerSocketENS1_15FunctionDeleterIS3_XadL_ZNS2_21InspectorSocketServer17CloseServerSocketEPS3_EEEEESaIS8_EE5beginEv(ptr noundef nonnull align 8 dereferenceable(24) %this1) #12
  %coerce.dive = getelementptr inbounds %"class.__gnu_cxx::__normal_iterator", ptr %ref.tmp, i32 0, i32 0
  store ptr %call, ptr %coerce.dive, align 8
  %call3 = call ptr @_ZNKSt6vectorISt10unique_ptrIN4node9inspector12ServerSocketENS1_15FunctionDeleterIS3_XadL_ZNS2_21InspectorSocketServer17CloseServerSocketEPS3_EEEEESaIS8_EE3endEv(ptr noundef nonnull align 8 dereferenceable(24) %this1) #12
  %coerce.dive4 = getelementptr inbounds %"class.__gnu_cxx::__normal_iterator", ptr %ref.tmp2, i32 0, i32 0
  store ptr %call3, ptr %coerce.dive4, align 8
  %call5 = call noundef zeroext i1 @_ZN9__gnu_cxxeqIPKSt10unique_ptrIN4node9inspector12ServerSocketENS2_15FunctionDeleterIS4_XadL_ZNS3_21InspectorSocketServer17CloseServerSocketEPS4_EEEEESt6vectorIS9_SaIS9_EEEEbRKNS_17__normal_iteratorIT_T0_EESK_(ptr noundef nonnull align 8 dereferenceable(8) %ref.tmp, ptr noundef nonnull align 8 dereferenceable(8) %ref.tmp2) #12
  ret i1 %call5
}

; Function Attrs: mustprogress nounwind uwtable
define dso_local noundef i32 @_ZNK4node9inspector21InspectorSocketServer4PortEv(ptr noundef nonnull align 8 dereferenceable(148) %this) #0 align 2 {
entry:
  %retval = alloca i32, align 4
  %this.addr = alloca ptr, align 8
  store ptr %this, ptr %this.addr, align 8
  %this1 = load ptr, ptr %this.addr, align 8
  %server_sockets_ = getelementptr inbounds %"class.node::inspector::InspectorSocketServer", ptr %this1, i32 0, i32 6
  %call = call noundef zeroext i1 @_ZNKSt6vectorISt10unique_ptrIN4node9inspector12ServerSocketENS1_15FunctionDeleterIS3_XadL_ZNS2_21InspectorSocketServer17CloseServerSocketEPS3_EEEEESaIS8_EE5emptyEv(ptr noundef nonnull align 8 dereferenceable(24) %server_sockets_) #12
  br i1 %call, label %if.end, label %if.then

if.then:                                          ; preds = %entry
  %server_sockets_2 = getelementptr inbounds %"class.node::inspector::InspectorSocketServer", ptr %this1, i32 0, i32 6
  %call3 = call noundef nonnull align 8 dereferenceable(8) ptr @_ZNKSt6vectorISt10unique_ptrIN4node9inspector12ServerSocketENS1_15FunctionDeleterIS3_XadL_ZNS2_21InspectorSocketServer17CloseServerSocketEPS3_EEEEESaIS8_EEixEm(ptr noundef nonnull align 8 dereferenceable(24) %server_sockets_2, i64 noundef 0) #12
  %call4 = call noundef ptr @_ZNKSt10unique_ptrIN4node9inspector12ServerSocketENS0_15FunctionDeleterIS2_XadL_ZNS1_21InspectorSocketServer17CloseServerSocketEPS2_EEEEEptEv(ptr noundef nonnull align 8 dereferenceable(8) %call3) #12
  %call5 = call noundef i32 @_ZNK4node9inspector12ServerSocket4portEv(ptr noundef nonnull align 8 dereferenceable(260) %call4)
  store i32 %call5, ptr %retval, align 4
  br label %return

if.end:                                           ; preds = %entry
  %port_ = getelementptr inbounds %"class.node::inspector::InspectorSocketServer", ptr %this1, i32 0, i32 3
  %0 = load i32, ptr %port_, align 8
  store i32 %0, ptr %retval, align 4
  br label %return

return:                                           ; preds = %if.end, %if.then
  %1 = load i32, ptr %retval, align 4
  ret i32 %1
}