; Function Attrs: mustprogress nofree norecurse nosync nounwind willreturn memory(read, inaccessiblemem: none) uwtable
define dso_local noundef i32 @_ZNK4node9inspector21InspectorSocketServer4PortEv(ptr nocapture noundef nonnull readonly align 8 dereferenceable(148) %this) local_unnamed_addr #4 align 2 {
entry:
  %server_sockets_ = getelementptr inbounds i8, ptr %this, i64 56
  %0 = load ptr, ptr %server_sockets_, align 8
  %_M_finish.i.i = getelementptr inbounds i8, ptr %this, i64 64
  %1 = load ptr, ptr %_M_finish.i.i, align 8
  %cmp.i.i = icmp eq ptr %0, %1
  br i1 %cmp.i.i, label %if.end, label %if.then

if.then:                                          ; preds = %entry
  %2 = load ptr, ptr %0, align 8
  %port_.i = getelementptr inbounds i8, ptr %2, i64 256
  br label %return

if.end:                                           ; preds = %entry
  %port_ = getelementptr inbounds i8, ptr %this, i64 48
  br label %return

return:                                           ; preds = %if.end, %if.then
  %retval.0.in = phi ptr [ %port_, %if.end ], [ %port_.i, %if.then ]
  %retval.0 = load i32, ptr %retval.0.in, align 8
  ret i32 %retval.0
}